	.file	"parctice_printf.c"
	.text
.Ltext0:
	.file 0 "/home/insomnia/eclipse-workspace/c-basic" "src/parctice_printf.c"
	.globl	parctice_printf_main
	.type	parctice_printf_main, @function
parctice_printf_main:
.LFB0:
	.file 1 "src/parctice_printf.c"
	.loc 1 14 1
	.cfi_startproc
	pushq	%rbp
	.cfi_def_cfa_offset 16
	.cfi_offset 6, -16
	movq	%rsp, %rbp
	.cfi_def_cfa_register 6
	.loc 1 15 3
	call	print_en_name
	.loc 1 16 3
	movl	$10, %edi
	call	putchar@PLT
	.loc 1 17 3
	call	self_introducation
	.loc 1 18 3
	movl	$10, %edi
	call	putchar@PLT
	.loc 1 19 3
	call	convert_age_to_day
	.loc 1 20 3
	movl	$10, %edi
	call	putchar@PLT
	.loc 1 21 3
	call	jolly
	.loc 1 22 3
	call	deny
	.loc 1 23 3
	movl	$10, %edi
	call	putchar@PLT
	.loc 1 24 3
	call	br
	.loc 1 25 3
	movl	$44, %edi
	call	putchar@PLT
	.loc 1 26 3
	call	ic
	.loc 1 27 3
	movl	$10, %edi
	call	putchar@PLT
	.loc 1 28 3
	call	ic
	.loc 1 29 3
	movl	$10, %edi
	call	putchar@PLT
	.loc 1 30 3
	call	br
	.loc 1 31 3
	movl	$10, %edi
	call	putchar@PLT
	.loc 1 32 3
	call	smile
	.loc 1 33 3
	movl	$10, %edi
	call	putchar@PLT
	.loc 1 34 3
	call	func_invok_func
	.loc 1 35 3
	movl	$10, %edi
	call	putchar@PLT
	.loc 1 36 10
	movl	$0, %eax
	.loc 1 37 1
	popq	%rbp
	.cfi_def_cfa 7, 8
	ret
	.cfi_endproc
.LFE0:
	.size	parctice_printf_main, .-parctice_printf_main
	.section	.rodata
.LC0:
	.string	"one"
	.text
	.globl	one_three
	.type	one_three, @function
one_three:
.LFB1:
	.loc 1 41 1
	.cfi_startproc
	pushq	%rbp
	.cfi_def_cfa_offset 16
	.cfi_offset 6, -16
	movq	%rsp, %rbp
	.cfi_def_cfa_register 6
	.loc 1 42 3
	leaq	.LC0(%rip), %rax
	movq	%rax, %rdi
	call	puts@PLT
	.loc 1 43 3
	call	two
	.loc 1 44 1
	nop
	popq	%rbp
	.cfi_def_cfa 7, 8
	ret
	.cfi_endproc
.LFE1:
	.size	one_three, .-one_three
	.section	.rodata
.LC1:
	.string	"two"
.LC2:
	.string	"three"
	.text
	.globl	two
	.type	two, @function
two:
.LFB2:
	.loc 1 48 1
	.cfi_startproc
	pushq	%rbp
	.cfi_def_cfa_offset 16
	.cfi_offset 6, -16
	movq	%rsp, %rbp
	.cfi_def_cfa_register 6
	.loc 1 49 3
	leaq	.LC1(%rip), %rax
	movq	%rax, %rdi
	call	puts@PLT
	.loc 1 50 3
	leaq	.LC2(%rip), %rax
	movq	%rax, %rdi
	call	puts@PLT
	.loc 1 51 1
	nop
	popq	%rbp
	.cfi_def_cfa 7, 8
	ret
	.cfi_endproc
.LFE2:
	.size	two, .-two
	.section	.rodata
.LC3:
	.string	"Starting now:"
.LC4:
	.string	"Done!"
	.text
	.globl	func_invok_func
	.type	func_invok_func, @function
func_invok_func:
.LFB3:
	.loc 1 55 1
	.cfi_startproc
	pushq	%rbp
	.cfi_def_cfa_offset 16
	.cfi_offset 6, -16
	movq	%rsp, %rbp
	.cfi_def_cfa_register 6
	.loc 1 56 3
	leaq	.LC3(%rip), %rax
	movq	%rax, %rdi
	call	puts@PLT
	.loc 1 57 3
	call	one_three
	.loc 1 58 3
	leaq	.LC4(%rip), %rax
	movq	%rax, %rdi
	call	puts@PLT
	.loc 1 59 1
	nop
	popq	%rbp
	.cfi_def_cfa 7, 8
	ret
	.cfi_endproc
.LFE3:
	.size	func_invok_func, .-func_invok_func
	.section	.rodata
.LC5:
	.string	"Smile!"
	.text
	.globl	smile
	.type	smile, @function
smile:
.LFB4:
	.loc 1 62 1
	.cfi_startproc
	pushq	%rbp
	.cfi_def_cfa_offset 16
	.cfi_offset 6, -16
	movq	%rsp, %rbp
	.cfi_def_cfa_register 6
	subq	$16, %rsp
	.loc 1 63 7
	movl	$3, -8(%rbp)
	.loc 1 64 14
	movl	$3, -8(%rbp)
	.loc 1 64 3
	jmp	.L7
.L10:
.LBB2:
	.loc 1 66 16
	movl	$0, -4(%rbp)
	.loc 1 66 7
	jmp	.L8
.L9:
	.loc 1 68 4 discriminator 3
	leaq	.LC5(%rip), %rax
	movq	%rax, %rdi
	movl	$0, %eax
	call	printf@PLT
	.loc 1 66 38 discriminator 3
	addl	$1, -4(%rbp)
.L8:
	.loc 1 66 29 discriminator 1
	movl	-4(%rbp), %eax
	cmpl	-8(%rbp), %eax
	jl	.L9
.LBE2:
	.loc 1 70 7 discriminator 2
	movl	$10, %edi
	call	putchar@PLT
	.loc 1 64 30 discriminator 2
	subl	$1, -8(%rbp)
.L7:
	.loc 1 64 25 discriminator 1
	cmpl	$0, -8(%rbp)
	jg	.L10
	.loc 1 72 1
	nop
	nop
	leave
	.cfi_def_cfa 7, 8
	ret
	.cfi_endproc
.LFE4:
	.size	smile, .-smile
	.section	.rodata
.LC6:
	.string	"Brazil, Russia"
	.text
	.globl	br
	.type	br, @function
br:
.LFB5:
	.loc 1 76 1
	.cfi_startproc
	pushq	%rbp
	.cfi_def_cfa_offset 16
	.cfi_offset 6, -16
	movq	%rsp, %rbp
	.cfi_def_cfa_register 6
	.loc 1 77 3
	leaq	.LC6(%rip), %rax
	movq	%rax, %rdi
	movl	$0, %eax
	call	printf@PLT
	.loc 1 78 1
	nop
	popq	%rbp
	.cfi_def_cfa 7, 8
	ret
	.cfi_endproc
.LFE5:
	.size	br, .-br
	.section	.rodata
.LC7:
	.string	"India, China"
	.text
	.globl	ic
	.type	ic, @function
ic:
.LFB6:
	.loc 1 82 1
	.cfi_startproc
	pushq	%rbp
	.cfi_def_cfa_offset 16
	.cfi_offset 6, -16
	movq	%rsp, %rbp
	.cfi_def_cfa_register 6
	.loc 1 83 3
	leaq	.LC7(%rip), %rax
	movq	%rax, %rdi
	movl	$0, %eax
	call	printf@PLT
	.loc 1 84 1
	nop
	popq	%rbp
	.cfi_def_cfa 7, 8
	ret
	.cfi_endproc
.LFE6:
	.size	ic, .-ic
	.section	.rodata
.LC8:
	.string	"For he's a jolly good fellow!"
	.text
	.globl	jolly
	.type	jolly, @function
jolly:
.LFB7:
	.loc 1 88 1
	.cfi_startproc
	pushq	%rbp
	.cfi_def_cfa_offset 16
	.cfi_offset 6, -16
	movq	%rsp, %rbp
	.cfi_def_cfa_register 6
	subq	$16, %rsp
.LBB3:
	.loc 1 89 12
	movl	$0, -4(%rbp)
	.loc 1 89 3
	jmp	.L14
.L15:
	.loc 1 91 7 discriminator 3
	leaq	.LC8(%rip), %rax
	movq	%rax, %rdi
	call	puts@PLT
	.loc 1 89 30 discriminator 3
	addl	$1, -4(%rbp)
.L14:
	.loc 1 89 25 discriminator 1
	cmpl	$2, -4(%rbp)
	jle	.L15
.LBE3:
	.loc 1 93 1
	nop
	nop
	leave
	.cfi_def_cfa 7, 8
	ret
	.cfi_endproc
.LFE7:
	.size	jolly, .-jolly
	.section	.rodata
.LC9:
	.string	"Which nobody can deny!"
	.text
	.globl	deny
	.type	deny, @function
deny:
.LFB8:
	.loc 1 97 1
	.cfi_startproc
	pushq	%rbp
	.cfi_def_cfa_offset 16
	.cfi_offset 6, -16
	movq	%rsp, %rbp
	.cfi_def_cfa_register 6
	.loc 1 98 3
	leaq	.LC9(%rip), %rax
	movq	%rax, %rdi
	call	puts@PLT
	.loc 1 99 1
	nop
	popq	%rbp
	.cfi_def_cfa 7, 8
	ret
	.cfi_endproc
.LFE8:
	.size	deny, .-deny
	.section	.rodata
.LC10:
	.string	"insomnia-warpaint"
.LC11:
	.string	"wp837491041final@gmail.com"
.LC12:
	.string	"my nick name is %s\n"
.LC13:
	.string	"gmail email addr is %s\n"
	.text
	.globl	self_introducation
	.type	self_introducation, @function
self_introducation:
.LFB9:
	.loc 1 103 1
	.cfi_startproc
	pushq	%rbp
	.cfi_def_cfa_offset 16
	.cfi_offset 6, -16
	movq	%rsp, %rbp
	.cfi_def_cfa_register 6
	subq	$16, %rsp
	.loc 1 104 9
	leaq	.LC10(%rip), %rax
	movq	%rax, -16(%rbp)
	.loc 1 105 9
	leaq	.LC11(%rip), %rax
	movq	%rax, -8(%rbp)
	.loc 1 106 3
	movq	-16(%rbp), %rax
	movq	%rax, %rsi
	leaq	.LC12(%rip), %rax
	movq	%rax, %rdi
	movl	$0, %eax
	call	printf@PLT
	.loc 1 107 3
	movq	-8(%rbp), %rax
	movq	%rax, %rsi
	leaq	.LC13(%rip), %rax
	movq	%rax, %rdi
	movl	$0, %eax
	call	printf@PLT
	.loc 1 108 1
	nop
	leave
	.cfi_def_cfa 7, 8
	ret
	.cfi_endproc
.LFE9:
	.size	self_introducation, .-self_introducation
	.section	.rodata
.LC14:
	.string	"I lived %d days\n"
	.text
	.globl	convert_age_to_day
	.type	convert_age_to_day, @function
convert_age_to_day:
.LFB10:
	.loc 1 112 1
	.cfi_startproc
	pushq	%rbp
	.cfi_def_cfa_offset 16
	.cfi_offset 6, -16
	movq	%rsp, %rbp
	.cfi_def_cfa_register 6
	subq	$16, %rsp
	.loc 1 113 7
	movl	$23, -8(%rbp)
	.loc 1 114 7
	movl	$356, -4(%rbp)
	.loc 1 116 3
	movl	-8(%rbp), %eax
	imull	-4(%rbp), %eax
	movl	%eax, %esi
	leaq	.LC14(%rip), %rax
	movq	%rax, %rdi
	movl	$0, %eax
	call	printf@PLT
	.loc 1 117 1
	nop
	leave
	.cfi_def_cfa 7, 8
	ret
	.cfi_endproc
.LFE10:
	.size	convert_age_to_day, .-convert_age_to_day
	.section	.rodata
.LC15:
	.string	"Gustav"
.LC16:
	.string	"Mahler"
.LC17:
	.string	"%s %s\n"
	.text
	.globl	print_en_name
	.type	print_en_name, @function
print_en_name:
.LFB11:
	.loc 1 121 1
	.cfi_startproc
	pushq	%rbp
	.cfi_def_cfa_offset 16
	.cfi_offset 6, -16
	movq	%rsp, %rbp
	.cfi_def_cfa_register 6
	subq	$64, %rsp
	.loc 1 121 1
	movq	%fs:40, %rax
	movq	%rax, -8(%rbp)
	xorl	%eax, %eax
	.loc 1 122 9
	leaq	.LC15(%rip), %rax
	movq	%rax, -48(%rbp)
	.loc 1 123 9
	leaq	.LC16(%rip), %rax
	movq	%rax, -40(%rbp)
	.loc 1 125 7
	movl	$3, -32(%rbp)
	movl	$1, -28(%rbp)
	movl	$2, -24(%rbp)
	movl	$3, -20(%rbp)
	.loc 1 127 7
	movl	$4, -52(%rbp)
.LBB4:
	.loc 1 128 12
	movl	$0, -56(%rbp)
	.loc 1 128 3
	jmp	.L20
.L24:
	.loc 1 130 20
	movl	-56(%rbp), %eax
	cltq
	movl	-32(%rbp,%rax,4), %eax
	.loc 1 130 10
	cmpl	$3, %eax
	jne	.L21
	.loc 1 132 4
	movq	-40(%rbp), %rdx
	movq	-48(%rbp), %rax
	movq	%rax, %rsi
	leaq	.LC17(%rip), %rax
	movq	%rax, %rdi
	movl	$0, %eax
	call	printf@PLT
	jmp	.L22
.L21:
	.loc 1 134 25
	movl	-56(%rbp), %eax
	cltq
	movl	-32(%rbp,%rax,4), %eax
	.loc 1 134 15
	cmpl	$2, %eax
	jne	.L23
	.loc 1 136 4
	movq	-40(%rbp), %rax
	movq	%rax, %rdi
	call	puts@PLT
	jmp	.L22
.L23:
	.loc 1 138 25
	movl	-56(%rbp), %eax
	cltq
	movl	-32(%rbp,%rax,4), %eax
	.loc 1 138 15
	cmpl	$1, %eax
	jne	.L22
	.loc 1 140 4
	movq	-48(%rbp), %rax
	movq	%rax, %rdi
	call	puts@PLT
.L22:
	.loc 1 128 32 discriminator 2
	addl	$1, -56(%rbp)
.L20:
	.loc 1 128 25 discriminator 1
	movl	-56(%rbp), %eax
	cmpl	-52(%rbp), %eax
	jl	.L24
.LBE4:
	.loc 1 143 1
	nop
	movq	-8(%rbp), %rax
	subq	%fs:40, %rax
	je	.L25
	call	__stack_chk_fail@PLT
.L25:
	leave
	.cfi_def_cfa 7, 8
	ret
	.cfi_endproc
.LFE11:
	.size	print_en_name, .-print_en_name
.Letext0:
	.file 2 "/usr/include/stdio.h"
	.section	.note.GNU-stack,"",@progbits
